target datalayout = "e-m:e-p270:32:32-p271:32:32-p272:64:64-i64:64-i128:128-f80:128-n8:16:32:64-S128"
target triple = "x86_64-pc-linux-gnu"

%"class.std::__cxx11::basic_string" = type { %"struct.std::__cxx11::basic_string<char>::_Alloc_hider", i64, %union.anon }
%"struct.std::__cxx11::basic_string<char>::_Alloc_hider" = type { ptr }
%union.anon = type { i64, [8 x i8] }

; Function Attrs: mustprogress uwtable
define internal void @_ZN5Yosys5RTLILL11unescape_idERKNSt7__cxx1112basic_stringIcSt11char_traitsIcESaIcEEE(ptr dead_on_unwind noalias writable sret(%"class.std::__cxx11::basic_string") align 8 %0, ptr noundef nonnull align 8 dereferenceable(32) %1) #4 {
  %3 = alloca ptr, align 8
  %4 = alloca ptr, align 8
  store ptr %0, ptr %3, align 8
  store ptr %1, ptr %4, align 8
  %5 = load ptr, ptr %4, align 8
  %6 = call noundef i64 @_ZNKSt7__cxx1112basic_stringIcSt11char_traitsIcESaIcEE4sizeEv(ptr noundef nonnull align 8 dereferenceable(32) %5) #3
  %7 = icmp ult i64 %6, 2
  br i1 %7, label %8, label %10

8:                                                ; preds = %2
  %9 = load ptr, ptr %4, align 8
  call void @_ZNSt7__cxx1112basic_stringIcSt11char_traitsIcESaIcEEC1ERKS4_(ptr noundef nonnull align 8 dereferenceable(32) %0, ptr noundef nonnull align 8 dereferenceable(32) %9)
  br label %48

10:                                               ; preds = %2
  %11 = load ptr, ptr %4, align 8
  %12 = call noundef nonnull align 1 dereferenceable(1) ptr @_ZNKSt7__cxx1112basic_stringIcSt11char_traitsIcESaIcEEixEm(ptr noundef nonnull align 8 dereferenceable(32) %11, i64 noundef 0) #3
  %13 = load i8, ptr %12, align 1
  %14 = sext i8 %13 to i32
  %15 = icmp ne i32 %14, 92
  br i1 %15, label %16, label %18

16:                                               ; preds = %10
  %17 = load ptr, ptr %4, align 8
  call void @_ZNSt7__cxx1112basic_stringIcSt11char_traitsIcESaIcEEC1ERKS4_(ptr noundef nonnull align 8 dereferenceable(32) %0, ptr noundef nonnull align 8 dereferenceable(32) %17)
  br label %48

18:                                               ; preds = %10
  %19 = load ptr, ptr %4, align 8
  %20 = call noundef nonnull align 1 dereferenceable(1) ptr @_ZNKSt7__cxx1112basic_stringIcSt11char_traitsIcESaIcEEixEm(ptr noundef nonnull align 8 dereferenceable(32) %19, i64 noundef 1) #3
  %21 = load i8, ptr %20, align 1
  %22 = sext i8 %21 to i32
  %23 = icmp eq i32 %22, 36
  br i1 %23, label %30, label %24

24:                                               ; preds = %18
  %25 = load ptr, ptr %4, align 8
  %26 = call noundef nonnull align 1 dereferenceable(1) ptr @_ZNKSt7__cxx1112basic_stringIcSt11char_traitsIcESaIcEEixEm(ptr noundef nonnull align 8 dereferenceable(32) %25, i64 noundef 1) #3
  %27 = load i8, ptr %26, align 1
  %28 = sext i8 %27 to i32
  %29 = icmp eq i32 %28, 92
  br i1 %29, label %30, label %32

30:                                               ; preds = %24, %18
  %31 = load ptr, ptr %4, align 8
  call void @_ZNSt7__cxx1112basic_stringIcSt11char_traitsIcESaIcEEC1ERKS4_(ptr noundef nonnull align 8 dereferenceable(32) %0, ptr noundef nonnull align 8 dereferenceable(32) %31)
  br label %48

32:                                               ; preds = %24
  %33 = load ptr, ptr %4, align 8
  %34 = call noundef nonnull align 1 dereferenceable(1) ptr @_ZNKSt7__cxx1112basic_stringIcSt11char_traitsIcESaIcEEixEm(ptr noundef nonnull align 8 dereferenceable(32) %33, i64 noundef 1) #3
  %35 = load i8, ptr %34, align 1
  %36 = sext i8 %35 to i32
  %37 = icmp sge i32 %36, 48
  br i1 %37, label %38, label %46

38:                                               ; preds = %32
  %39 = load ptr, ptr %4, align 8
  %40 = call noundef nonnull align 1 dereferenceable(1) ptr @_ZNKSt7__cxx1112basic_stringIcSt11char_traitsIcESaIcEEixEm(ptr noundef nonnull align 8 dereferenceable(32) %39, i64 noundef 1) #3
  %41 = load i8, ptr %40, align 1
  %42 = sext i8 %41 to i32
  %43 = icmp sle i32 %42, 57
  br i1 %43, label %44, label %46

44:                                               ; preds = %38
  %45 = load ptr, ptr %4, align 8
  call void @_ZNSt7__cxx1112basic_stringIcSt11char_traitsIcESaIcEEC1ERKS4_(ptr noundef nonnull align 8 dereferenceable(32) %0, ptr noundef nonnull align 8 dereferenceable(32) %45)
  br label %48

46:                                               ; preds = %38, %32
  %47 = load ptr, ptr %4, align 8
  call void @_ZNKSt7__cxx1112basic_stringIcSt11char_traitsIcESaIcEE6substrEmm(ptr dead_on_unwind writable sret(%"class.std::__cxx11::basic_string") align 8 %0, ptr noundef nonnull align 8 dereferenceable(32) %47, i64 noundef 1, i64 noundef -1)
  br label %48

48:                                               ; preds = %46, %44, %30, %16, %8
  ret void
}